; Function Attrs: mustprogress nofree norecurse nosync nounwind memory(readwrite, inaccessiblemem: none) uwtable
define dso_local void @_ZN22btDeformableBodySolver8updateDvEf(ptr noundef nonnull readonly align 8 captures(none) dereferenceable(609) %0, float noundef %1) local_unnamed_addr #13 align 2 {
  %3 = getelementptr inbounds nuw i8, ptr %0, i64 20
  %4 = load i32, ptr %3, align 4, !tbaa !85
  %5 = icmp sgt i32 %4, 0
  br i1 %5, label %.lr.ph, label %._crit_edge

.lr.ph:                                           ; preds = %2
  %6 = getelementptr inbounds nuw i8, ptr %0, i64 104
  %7 = load ptr, ptr %6, align 8, !tbaa !29
  %8 = getelementptr inbounds nuw i8, ptr %0, i64 40
  %9 = load ptr, ptr %8, align 8, !tbaa !29
  %wide.trip.count = zext nneg i32 %4 to i64
  br label %10

._crit_edge:                                      ; preds = %10, %2
  ret void

10:                                               ; preds = %.lr.ph, %10
  %indvars.iv = phi i64 [ 0, %.lr.ph ], [ %indvars.iv.next, %10 ]
  %11 = getelementptr inbounds nuw %class.btVector3, ptr %7, i64 %indvars.iv
  %12 = load float, ptr %11, align 4, !tbaa !45
  %13 = fmul float %1, %12
  %14 = getelementptr inbounds nuw i8, ptr %11, i64 4
  %15 = load float, ptr %14, align 4, !tbaa !45
  %16 = fmul float %1, %15
  %17 = getelementptr inbounds nuw i8, ptr %11, i64 8
  %18 = load float, ptr %17, align 4, !tbaa !45
  %19 = fmul float %1, %18
  %20 = getelementptr inbounds nuw %class.btVector3, ptr %9, i64 %indvars.iv
  %21 = load float, ptr %20, align 4, !tbaa !45
  %22 = fadd float %13, %21
  store float %22, ptr %20, align 4, !tbaa !45
  %23 = getelementptr inbounds nuw i8, ptr %20, i64 4
  %24 = load float, ptr %23, align 4, !tbaa !45
  %25 = fadd float %16, %24
  store float %25, ptr %23, align 4, !tbaa !45
  %26 = getelementptr inbounds nuw i8, ptr %20, i64 8
  %27 = load float, ptr %26, align 4, !tbaa !45
  %28 = fadd float %19, %27
  store float %28, ptr %26, align 4, !tbaa !45
  %indvars.iv.next = add nuw nsw i64 %indvars.iv, 1
  %exitcond.not = icmp eq i64 %indvars.iv.next, %wide.trip.count
  br i1 %exitcond.not, label %._crit_edge, label %10, !llvm.loop !172
}